MPASM 5.68                          MAIN.ASM   10-21-2016  0:05:06         PAGE  1


LOC  OBJECT CODE     LINE SOURCE TEXT
  VALUE

                      00001 
                      00002 
                      00003         list            p=16f877A       ; list directive to define processor
                      00004         #include        <p16f877A.inc>  ; processor specific variable definitions       
                      00001         LIST
                      00002 
                      00003 ;==========================================================================
                      00004 ; Build date : May 15 2016
                      00005 ;  MPASM PIC16F877A processor include
                      00006 ; 
                      00007 ;  (c) Copyright 1999-2016 Microchip Technology, All rights reserved
                      00008 ;==========================================================================
                      00009 
                      00567         LIST
2007   3F3A           00005         __CONFIG _CP_OFF & _WDT_OFF & _BODEN_OFF & _PWRTE_OFF & _HS_OSC & _WRT_OFF & _LVP_OFF & _CPD_OFF
                      00006 ;1.     编写子程序Bin2BCD，实现二进制数到压缩BCD码的转换。
                      00007 ;       待转换的二进制数存放在w寄存器内，子程序调用完成后得到的BCD码仍存放在w寄存器内返回。例如
                      00008 ;movlw .45; w=45
                      00009 ;call   Bin2BCD;
                      00010 ;nop      ;w=0x45
                      00011 ;编写Main主程序，对编写的子程序进行测试。
                      00012 ;2.     编写子程序Div_16，实现双字节无符号数除法。自行定义变量，其中：
                      00013 ;ACCALO ;存放被除数低 8 位
                      00014 ;ACCAHI ;存放被除数高 8 位
                      00015 ;ACCBLO ;存放除数 8 位
                      00016 ;ACCCLO ;存放余数 8 位
                      00017 ;ACCCHI ;存放商 8 位
                      00018 
Warning[207]: Found label after column 1. (TEN)
  00000023            00019  TEN              EQU    0x23  ;临时寄存器
Warning[207]: Found label after column 1. (TEMP)
  00000024            00020  TEMP         EQU    0x24  ;临时寄存器
                      00021 
  00000025            00022 ACCALO  equ     0x25    ;存放被除数
Warning[207]: Found label after column 1. (ACCAHI)
  00000026            00023  ACCAHI equ     0x26    ;存放被除数
Warning[207]: Found label after column 1. (ACCBLO)
  00000027            00024  ACCBLO equ     0x27    ;存放除数
  00000028            00025 NACCBLO equ     0x28    ;存放除数的补码
Warning[207]: Found label after column 1. (ACCCLO)
  00000029            00026  ACCCLO equ     0x29    ;存放余数
Warning[207]: Found label after column 1. (ACCCHI)
  0000002A            00027  ACCCHI equ     0x2a    ;存放商
  0000002B            00028 NO_B    equ     0x2b    ;除数的符号位
  0000002C            00029 BTL     equ     0x2c    ;临时寄存器
  0000002D            00030 LOG     equ     0x2d    ;报警寄存器，低两位为被除数符号位
  0000002E            00031 COUNT   equ     0x2e    ;计数寄存器
                      00032         
                      00033 #define ACCA    0x3453  ;0x3453/0xb5=0x4a......0x01
                      00034 #define ACCB    0xb5    ;0x4015/0x57=0xbc......0x31
                      00035 
                      00036 ;**********************************************************************
                      00037         ORG         0x0000           ; 复位入口地址
MPASM 5.68                          MAIN.ASM   10-21-2016  0:05:06         PAGE  2


LOC  OBJECT CODE     LINE SOURCE TEXT
  VALUE

0000   0000           00038         nop                                      ; 兼容ICD调试工具，必须加nop
0001   2???           00039         goto        Main                 ; 跳转至Main函数
                      00040 ;**************************************Main 函数的代码**************
0002                  00041 Main                                               
0002   302D           00042         movlw   .45
0003   2???           00043         call    Bin2BCD
0004   2???           00044         call    BCD2Bin
0005   3014           00045         movlw   .20
0006   2???           00046         call    Bin2BCD
0007   2???           00047         call    BCD2Bin
0008   3037           00048         movlw   .55
0009   2???           00049         call    Bin2BCD
000A   2???           00050         call    BCD2Bin
000B   3005           00051         movlw   .5
000C   2???           00052         call    Bin2BCD
000D   2???           00053         call    BCD2Bin
000E   2???           00054         call    Div_16
000F   0000           00055         nop
0010   2???           00056         call    Div_16_e2
0011   0000           00057         nop
0012   2???           00058         goto           $                        ; 死循环
                      00059         
                      00060 ;**********************二进制转BCD***************************************           
0013                  00061 Bin2BCD
0013   00A4           00062             movwf       TEMP    ;将w寄存器保存
0014   01A3           00063             clrf        TEN     ;TEN每次清零，保证正确
0015   300A           00064             movlw       .10     
0016   02A4           00065             subwf       TEMP,f  ;循环，TEMP每次减10
0017   1C03           00066             btfss       STATUS,C
0018   2???           00067             goto        $ + 3   ;f<w
0019   0AA3           00068             incf        TEN,f   ;f>w，ten+1,继续减
001A   2???           00069             goto        $ - 4
001B   0724           00070             addwf       TEMP,w  ;最后一次循环多减了10，此处加回来，得到个位
001C   0EA3           00071             swapf       TEN,f   ;将十位置于高四位
001D   0423           00072             iorwf       TEN,w   ;w高四位十位，低四位个位
001E   0008           00073             return
                      00074 ;**********************BCD转二进制***************************************
001F                  00075 BCD2Bin
001F   00A4           00076             movwf       TEMP    ;将w寄存器保存
0020   39F0           00077             andlw       0xf0    ;提取高四位
0021   00A3           00078             movwf       TEN
0022   0E23           00079             swapf       TEN,w   ;将w寄存器十位移到低四位
0023   1003           00080             bcf STATUS,C
0024   0CA3           00081             rrf TEN,f   ;右移一位，即TEN*8          
0025   07A3           00082             addwf       TEN,f
0026   07A3           00083             addwf       TEN,f   ;加两次，即TEN*10
0027   0824           00084             movf        TEMP,w
0028   390F           00085             andlw       0x0f
0029   0723           00086             addwf       TEN,w   ;十位个位相加
002A   0008           00087             return
                      00088 ;******************************双字节无符号数除法******************************
                      00089 ;       ACCAHI ACCALO / ACCBLO = ACCCHI ........ ACCCLO
002B                  00090 Div_16
MPASM 5.68                          MAIN.ASM   10-21-2016  0:05:06         PAGE  3


LOC  OBJECT CODE     LINE SOURCE TEXT
  VALUE

002B   3034           00091             movlw       high(ACCA)
002C   00A6           00092             movwf       ACCAHI
002D   3053           00093             movlw       low(ACCA)
002E   00A5           00094             movwf       ACCALO
002F   3008           00095             movlw       .8
0030   00AE           00096             movwf       COUNT
0031   30B5           00097             movlw       ACCB
0032   00A7           00098             movwf       ACCBLO  ;B
0033   0927           00099             comf        ACCBLO,w
0034   00A8           00100             movwf       NACCBLO
0035   0AA8           00101             incf        NACCBLO,f       ;B的补码
0036   01AA           00102             clrf        ACCCHI
0037   01A9           00103             clrf        ACCCLO
0038   01AD           00104             clrf        LOG
                      00105             
0039   0827           00106             movf        ACCBLO,w
003A   02A6           00107             subwf       ACCAHI,f
003B   1C03           00108             btfss       STATUS,C
003C   2???           00109             goto        $ + 3   
003D   17AD           00110             bsf LOG,7   ;溢出
003E   0008           00111             return
003F   0827           00112 SHANG0      movf        ACCBLO,w
Message[305]: Using default destination of 1 (file).
0040   0DAA           00113 LOOP        rlf ACCCHI  ;商左移一位
0041   0DA5           00114             rlf ACCALO,f
0042   0DA6           00115             rlf ACCAHI,f        ;被除数左移一位    
0043   07A6           00116             addwf       ACCAHI,f        ;ACCAHI=ACCAHI+w
Message[305]: Using default destination of 1 (file).
0044   0BAE           00117             decfsz      COUNT
0045   2???           00118             goto        $ + 2
0046   2???           00119             goto        LAST
0047   1C03           00120             btfss       STATUS,C
0048   2???           00121             goto        SHANG0  ;C=0,没有溢出
0049   0828           00122             movf        NACCBLO,w
004A   2???           00123             goto        LOOP
004B                  00124 LAST    
004B   1803           00125             btfsc       STATUS,C
004C   2???           00126             goto        $ + 3   ;C=1,不用加
004D   0827           00127             movf        ACCBLO,w        ;C=0,修正余数
004E   07A6           00128             addwf       ACCAHI,f
004F   0826           00129             movf        ACCAHI,w
0050   00A9           00130             movwf       ACCCLO
0051   0008           00131             return
                      00132 ;******************************双字节无符号数除法******************************
                      00133 ;       ACCAHI ACCALO / ACCBLO = ACCCHI ........ ACCCLO
                      00134 ;       扩展两个符号位，不用C
0052                  00135 Div_16_e2
0052   3034           00136             movlw       high(ACCA)
0053   00A6           00137             movwf       ACCAHI
0054   3053           00138             movlw       low(ACCA)
0055   00A5           00139             movwf       ACCALO
0056   3008           00140             movlw       .8
0057   00AE           00141             movwf       COUNT
MPASM 5.68                          MAIN.ASM   10-21-2016  0:05:06         PAGE  4


LOC  OBJECT CODE     LINE SOURCE TEXT
  VALUE

0058   30B5           00142             movlw       ACCB
0059   00A7           00143             movwf       ACCBLO  ;B
005A   0927           00144             comf        ACCBLO,w
005B   00A8           00145             movwf       NACCBLO
005C   0AA8           00146             incf        NACCBLO,f       ;B的补码
005D   01AA           00147             clrf        ACCCHI
005E   01A9           00148             clrf        ACCCLO
005F   01AD           00149             clrf        LOG
                      00150             
0060   2???           00151             call        sub
0061   182D           00152             btfsc       LOG,0
0062   1CAD           00153             btfss       LOG,1   ;LOG(0)=1
0063   2???           00154             goto        $ + 2   ;LOG(0)=0||LOG(1)=0
0064   2???           00155             goto        shang_e2        ;LOG(1)=1       
0065   17AD           00156             bsf LOG,7   ;溢出
0066   0008           00157             return 
                      00158             
0067   0DA5           00159 shang_e2            rlf ACCALO,f
0068   0DA6           00160             rlf ACCAHI,f        ;被除数左移一位
0069   0DAD           00161             rlf LOG,f   ;符号位左移一位
                      00162             
006A   1C2A           00163             btfss       ACCCHI,0
006B   2???           00164             call        add     ;上次商0，这次执行加法
006C   182A           00165             btfsc       ACCCHI,0
006D   2???           00166             call        sub     ;上次商1，这次执行减法
                      00167             
Message[305]: Using default destination of 1 (file).
006E   0DAA           00168             rlf ACCCHI  ;商左移一位
                      00169             
Message[305]: Using default destination of 1 (file).
006F   0BAE           00170             decfsz      COUNT
0070   2???           00171             goto        $ + 2
0071   2???           00172             goto        LAST_e2 
                      00173             
0072   182D           00174             btfsc       LOG,0
0073   1CAD           00175             btfss       LOG,1   ;LOG(0)=1
0074   2???           00176             goto        $ + 3   ;LOG(0)=0||LOG(1)=0，为正数，商1
0075   102A           00177             bcf ACCCHI,0        ;LOG(1)=1,为负数,商0
0076   2???           00178             goto        shang_e2
0077   142A           00179             bsf ACCCHI,0
0078   2???           00180             goto        shang_e2
0079                  00181 LAST_e2 
0079   182D           00182             btfsc       LOG,0
007A   1CAD           00183             btfss       LOG,1   ;LOG(0)=1
007B   2???           00184             goto        $ + 3   ;LOG(0)=0||LOG(1)=0，不用修正           
007C   2???           00185             call        add     ;LOG(1)=1,商为负，要修正
007D   2???           00186             goto        $ + 2
007E   142A           00187             bsf ACCCHI,0        ;商1
007F   0826           00188             movf        ACCAHI,w
0080   00A9           00189             movwf       ACCCLO
0081   0008           00190             return
                      00191 ;A+B,A为LOG(1:0)ACCAHI,B为ACCBLO，符号位为00，正数
0082                  00192 add
MPASM 5.68                          MAIN.ASM   10-21-2016  0:05:06         PAGE  5


LOC  OBJECT CODE     LINE SOURCE TEXT
  VALUE

0082   0827           00193             movf        ACCBLO,w
0083   07A6           00194             addwf       ACCAHI,f
0084   1803           00195             btfsc       STATUS,C
0085   0AAD           00196             incf        LOG,f
0086   3000           00197             movlw       0x00
0087   07AD           00198             addwf       LOG,f
0088   0008           00199             return
                      00200 ;A-B，A为LOG(1:0)ACCAHI,B为NACCBLO，且符号位为11
0089                  00201 sub
0089   0828           00202             movf        NACCBLO,w
008A   07A6           00203             addwf       ACCAHI,f
008B   1803           00204             btfsc       STATUS,C
008C   0AAD           00205             incf        LOG,f
008D   3003           00206             movlw       0x03
008E   07AD           00207             addwf       LOG,f
008F   0008           00208             return
Warning[205]: Found directive in column 1. (END)
3F3A                  00209 END                                                     ; 程序结束
MPASM 5.68                          MAIN.ASM   10-21-2016  0:05:06         PAGE  6


SYMBOL TABLE
  LABEL                             VALUE 

ACCA                              0x3453
ACCAHI                            00000026
ACCALO                            00000025
ACCB                              0xb5
ACCBLO                            00000027
ACCCHI                            0000002A
ACCCLO                            00000029
ACKDT                             00000005
ACKEN                             00000004
ACKSTAT                           00000006
ADCON0                            0000001F
ADCON1                            0000009F
ADCS0                             00000006
ADCS1                             00000007
ADCS2                             00000006
ADDEN                             00000003
ADFM                              00000007
ADIE                              00000006
ADIF                              00000006
ADON                              00000000
ADRESH                            0000001E
ADRESL                            0000009E
BCD2Bin                           0000001F
BCLIE                             00000003
BCLIF                             00000003
BF                                00000000
BRGH                              00000002
BTL                               0000002C
Bin2BCD                           00000013
C                                 00000000
C1INV                             00000004
C1OUT                             00000006
C2INV                             00000005
C2OUT                             00000007
CCP1CON                           00000017
CCP1IE                            00000002
CCP1IF                            00000002
CCP1M0                            00000000
CCP1M1                            00000001
CCP1M2                            00000002
CCP1M3                            00000003
CCP1X                             00000005
CCP1Y                             00000004
CCP2CON                           0000001D
CCP2IE                            00000000
CCP2IF                            00000000
CCP2M0                            00000000
CCP2M1                            00000001
CCP2M2                            00000002
CCP2M3                            00000003
CCP2X                             00000005
CCP2Y                             00000004
CCPR1                             00000015
MPASM 5.68                          MAIN.ASM   10-21-2016  0:05:06         PAGE  7


SYMBOL TABLE
  LABEL                             VALUE 

CCPR1H                            00000016
CCPR1L                            00000015
CCPR2                             0000001B
CCPR2H                            0000001C
CCPR2L                            0000001B
CHS0                              00000003
CHS1                              00000004
CHS2                              00000005
CIS                               00000003
CKE                               00000006
CKP                               00000004
CM0                               00000000
CM1                               00000001
CM2                               00000002
CMCON                             0000009C
CMIE                              00000006
CMIF                              00000006
COUNT                             0000002E
CREN                              00000004
CSRC                              00000007
CVR0                              00000000
CVR1                              00000001
CVR2                              00000002
CVR3                              00000003
CVRCON                            0000009D
CVREN                             00000007
CVROE                             00000006
CVRR                              00000005
D                                 00000005
DATA_ADDRESS                      00000005
DC                                00000001
D_A                               00000005
D_NOT_A                           00000005
Div_16                            0000002B
Div_16_e2                         00000052
EEADR                             0000010D
EEADRH                            0000010F
EECON1                            0000018C
EECON2                            0000018D
EEDATA                            0000010C
EEDATH                            0000010E
EEIE                              00000004
EEIF                              00000004
EEPGD                             00000007
F                                 00000001
FERR                              00000002
FSR                               00000004
GCEN                              00000007
GIE                               00000007
GO                                00000002
GO_DONE                           00000002
GO_NOT_DONE                       00000002
I2C_DATA                          00000005
MPASM 5.68                          MAIN.ASM   10-21-2016  0:05:06         PAGE  8


SYMBOL TABLE
  LABEL                             VALUE 

I2C_READ                          00000002
I2C_START                         00000003
I2C_STOP                          00000004
IBF                               00000007
IBOV                              00000005
INDF                              00000000
INTCON                            0000000B
INTE                              00000004
INTEDG                            00000006
INTF                              00000001
IRP                               00000007
LAST                              0000004B
LAST_e2                           00000079
LOG                               0000002D
LOOP                              00000040
Main                              00000002
NACCBLO                           00000028
NOT_A                             00000005
NOT_ADDRESS                       00000005
NOT_BO                            00000000
NOT_BOR                           00000000
NOT_DONE                          00000002
NOT_PD                            00000003
NOT_POR                           00000001
NOT_RBPU                          00000007
NOT_RC8                           00000006
NOT_T1SYNC                        00000002
NOT_TO                            00000004
NOT_TX8                           00000006
NOT_W                             00000002
NOT_WRITE                         00000002
NO_B                              0000002B
OBF                               00000006
OERR                              00000001
OPTION_REG                        00000081
P                                 00000004
PCFG0                             00000000
PCFG1                             00000001
PCFG2                             00000002
PCFG3                             00000003
PCL                               00000002
PCLATH                            0000000A
PCON                              0000008E
PEIE                              00000006
PEN                               00000002
PIE1                              0000008C
PIE2                              0000008D
PIR1                              0000000C
PIR2                              0000000D
PORTA                             00000005
PORTB                             00000006
PORTC                             00000007
PORTD                             00000008
MPASM 5.68                          MAIN.ASM   10-21-2016  0:05:06         PAGE  9


SYMBOL TABLE
  LABEL                             VALUE 

PORTE                             00000009
PR2                               00000092
PS0                               00000000
PS1                               00000001
PS2                               00000002
PSA                               00000003
PSPIE                             00000007
PSPIF                             00000007
PSPMODE                           00000004
R                                 00000002
RA0                               00000000
RA1                               00000001
RA2                               00000002
RA3                               00000003
RA4                               00000004
RA5                               00000005
RB0                               00000000
RB1                               00000001
RB2                               00000002
RB3                               00000003
RB4                               00000004
RB5                               00000005
RB6                               00000006
RB7                               00000007
RBIE                              00000003
RBIF                              00000000
RC0                               00000000
RC1                               00000001
RC2                               00000002
RC3                               00000003
RC4                               00000004
RC5                               00000005
RC6                               00000006
RC7                               00000007
RC8_9                             00000006
RC9                               00000006
RCD8                              00000000
RCEN                              00000003
RCIE                              00000005
RCIF                              00000005
RCREG                             0000001A
RCSTA                             00000018
RD                                00000000
RD0                               00000000
RD1                               00000001
RD2                               00000002
RD3                               00000003
RD4                               00000004
RD5                               00000005
RD6                               00000006
RD7                               00000007
RE0                               00000000
RE1                               00000001
MPASM 5.68                          MAIN.ASM   10-21-2016  0:05:06         PAGE 10


SYMBOL TABLE
  LABEL                             VALUE 

RE2                               00000002
READ_WRITE                        00000002
RP0                               00000005
RP1                               00000006
RSEN                              00000001
RX9                               00000006
RX9D                              00000000
R_NOT_W                           00000002
R_W                               00000002
S                                 00000003
SEN                               00000000
SHANG0                            0000003F
SMP                               00000007
SPBRG                             00000099
SPEN                              00000007
SREN                              00000005
SSPADD                            00000093
SSPBUF                            00000013
SSPCON                            00000014
SSPCON2                           00000091
SSPEN                             00000005
SSPIE                             00000003
SSPIF                             00000003
SSPM0                             00000000
SSPM1                             00000001
SSPM2                             00000002
SSPM3                             00000003
SSPOV                             00000006
SSPSTAT                           00000094
STATUS                            00000003
SYNC                              00000004
T0CS                              00000005
T0IE                              00000005
T0IF                              00000002
T0SE                              00000004
T1CKPS0                           00000004
T1CKPS1                           00000005
T1CON                             00000010
T1INSYNC                          00000002
T1OSCEN                           00000003
T1SYNC                            00000002
T2CKPS0                           00000000
T2CKPS1                           00000001
T2CON                             00000012
TEMP                              00000024
TEN                               00000023
TMR0                              00000001
TMR0IE                            00000005
TMR0IF                            00000002
TMR1                              0000000E
TMR1CS                            00000001
TMR1H                             0000000F
TMR1IE                            00000000
MPASM 5.68                          MAIN.ASM   10-21-2016  0:05:06         PAGE 11


SYMBOL TABLE
  LABEL                             VALUE 

TMR1IF                            00000000
TMR1L                             0000000E
TMR1ON                            00000000
TMR2                              00000011
TMR2IE                            00000001
TMR2IF                            00000001
TMR2ON                            00000002
TOUTPS0                           00000003
TOUTPS1                           00000004
TOUTPS2                           00000005
TOUTPS3                           00000006
TRISA                             00000085
TRISA0                            00000000
TRISA1                            00000001
TRISA2                            00000002
TRISA3                            00000003
TRISA4                            00000004
TRISA5                            00000005
TRISB                             00000086
TRISB0                            00000000
TRISB1                            00000001
TRISB2                            00000002
TRISB3                            00000003
TRISB4                            00000004
TRISB5                            00000005
TRISB6                            00000006
TRISB7                            00000007
TRISC                             00000087
TRISC0                            00000000
TRISC1                            00000001
TRISC2                            00000002
TRISC3                            00000003
TRISC4                            00000004
TRISC5                            00000005
TRISC6                            00000006
TRISC7                            00000007
TRISD                             00000088
TRISD0                            00000000
TRISD1                            00000001
TRISD2                            00000002
TRISD3                            00000003
TRISD4                            00000004
TRISD5                            00000005
TRISD6                            00000006
TRISD7                            00000007
TRISE                             00000089
TRISE0                            00000000
TRISE1                            00000001
TRISE2                            00000002
TRMT                              00000001
TX8_9                             00000006
TX9                               00000006
TX9D                              00000000
MPASM 5.68                          MAIN.ASM   10-21-2016  0:05:06         PAGE 12


SYMBOL TABLE
  LABEL                             VALUE 

TXD8                              00000000
TXEN                              00000005
TXIE                              00000004
TXIF                              00000004
TXREG                             00000019
TXSTA                             00000098
UA                                00000001
W                                 00000000
WCOL                              00000007
WR                                00000001
WREN                              00000002
WRERR                             00000003
Z                                 00000002
_.org_0_0012                      00000012
_.org_0_0018                      00000018
_.org_0_001A                      0000001A
_.org_0_003C                      0000003C
_.org_0_0045                      00000045
_.org_0_004C                      0000004C
_.org_0_0063                      00000063
_.org_0_0070                      00000070
_.org_0_0074                      00000074
_.org_0_007B                      0000007B
_.org_0_007D                      0000007D
_BODEN_OFF                        00003FBF
_BODEN_ON                         00003FFF
_BOREN_OFF                        00003FBF
_BOREN_ON                         00003FFF
_CONFIG                           00002007
_CPD_OFF                          00003FFF
_CPD_ON                           00003EFF
_CP_ALL                           00001FFF
_CP_OFF                           00003FFF
_CP_ON                            00001FFF
_DEBUG_OFF                        00003FFF
_DEBUG_ON                         000037FF
_DEVID1                           00002006
_FOSC_EXTRC                       00003FFF
_FOSC_HS                          00003FFE
_FOSC_LP                          00003FFC
_FOSC_XT                          00003FFD
_HS_OSC                           00003FFE
_IDLOC0                           00002000
_IDLOC1                           00002001
_IDLOC2                           00002002
_IDLOC3                           00002003
_LP_OSC                           00003FFC
_LVP_OFF                          00003F7F
_LVP_ON                           00003FFF
_PWRTE_OFF                        00003FFF
_PWRTE_ON                         00003FF7
_RC_OSC                           00003FFF
_WDTE_OFF                         00003FFB
MPASM 5.68                          MAIN.ASM   10-21-2016  0:05:06         PAGE 13


SYMBOL TABLE
  LABEL                             VALUE 

_WDTE_ON                          00003FFF
_WDT_OFF                          00003FFB
_WDT_ON                           00003FFF
_WRT_1FOURTH                      00003BFF
_WRT_256                          00003DFF
_WRT_HALF                         000039FF
_WRT_OFF                          00003FFF
_XT_OSC                           00003FFD
__16F877A                         00000001
__DEBUG                           
__MPLAB_DEBUGGER_SIMULATOR        1
add                               00000082
shang_e2                          00000067
sub                               00000089

Errors   :     0
Warnings :     7 reported,     0 suppressed
Messages :     4 reported,     0 suppressed

